target datalayout = "e-m:e-p270:32:32-p271:32:32-p272:64:64-i64:64-i128:128-f80:128-n8:16:32:64-S128"
target triple = "x86_64-pc-linux-gnu"

%struct.Gli_Man_t_ = type { ptr, ptr, ptr, ptr, ptr, i32, i32, i32, i32, i32, ptr, ptr }
%struct.Gli_Obj_t_ = type { i32, i32, ptr, i32, %union.anon, %union.anon.0, [0 x i32] }
%union.anon = type { i32 }
%union.anon.0 = type { i32 }

; Function Attrs: inlinehint nounwind uwtable
define internal i32 @Abc_InfoHasBit(ptr noundef %0, i32 noundef %1) #3 {
  %3 = alloca ptr, align 8
  %4 = alloca i32, align 4
  store ptr %0, ptr %3, align 8, !tbaa !60
  store i32 %1, ptr %4, align 4, !tbaa !3
  %5 = load ptr, ptr %3, align 8, !tbaa !60
  %6 = load i32, ptr %4, align 4, !tbaa !3
  %7 = ashr i32 %6, 5
  %8 = sext i32 %7 to i64
  %9 = getelementptr inbounds i32, ptr %5, i64 %8
  %10 = load i32, ptr %9, align 4, !tbaa !3
  %11 = load i32, ptr %4, align 4, !tbaa !3
  %12 = and i32 %11, 31
  %13 = shl i32 1, %12
  %14 = and i32 %10, %13
  %15 = icmp ugt i32 %14, 0
  %16 = zext i1 %15 to i32
  ret i32 %16
}

; Function Attrs: inlinehint nounwind uwtable
define internal ptr @Gli_ObjFanin(ptr noundef %0, i32 noundef %1) #3 {
  %3 = alloca ptr, align 8
  %4 = alloca i32, align 4
  store ptr %0, ptr %3, align 8, !tbaa !27
  store i32 %1, ptr %4, align 4, !tbaa !3
  %5 = load ptr, ptr %3, align 8, !tbaa !27
  %6 = load ptr, ptr %3, align 8, !tbaa !27
  %7 = getelementptr inbounds nuw %struct.Gli_Obj_t_, ptr %6, i32 0, i32 6
  %8 = load i32, ptr %4, align 4, !tbaa !3
  %9 = sext i32 %8 to i64
  %10 = getelementptr inbounds [0 x i32], ptr %7, i64 0, i64 %9
  %11 = load i32, ptr %10, align 4, !tbaa !3
  %12 = sext i32 %11 to i64
  %13 = sub i64 0, %12
  %14 = getelementptr inbounds i32, ptr %5, i64 %13
  ret ptr %14
}

; Function Attrs: inlinehint nounwind uwtable
define internal i32 @Gli_ObjSize(ptr noundef %0) #3 {
  %2 = alloca ptr, align 8
  store ptr %0, ptr %2, align 8, !tbaa !27
  %3 = load ptr, ptr %2, align 8, !tbaa !27
  %4 = load i32, ptr %3, align 8
  %5 = lshr i32 %4, 4
  %6 = and i32 %5, 7
  %7 = zext i32 %6 to i64
  %8 = add i64 8, %7
  %9 = load ptr, ptr %2, align 8, !tbaa !27
  %10 = load i32, ptr %9, align 8
  %11 = lshr i32 %10, 7
  %12 = zext i32 %11 to i64
  %13 = add i64 %8, %12
  %14 = trunc i64 %13 to i32
  ret i32 %14
}

; Function Attrs: inlinehint nounwind uwtable
define internal i32 @Gli_NodeComputeValue(ptr noundef %0) #3 {
  %2 = alloca ptr, align 8
  %3 = alloca i32, align 4
  %4 = alloca i32, align 4
  store ptr %0, ptr %2, align 8, !tbaa !27
  call void @llvm.lifetime.start.p0(i64 4, ptr %3) #10
  call void @llvm.lifetime.start.p0(i64 4, ptr %4) #10
  store i32 0, ptr %4, align 4, !tbaa !3
  store i32 0, ptr %3, align 4, !tbaa !3
  br label %5

5:                                                ; preds = %23, %1
  %6 = load i32, ptr %3, align 4, !tbaa !3
  %7 = load ptr, ptr %2, align 8, !tbaa !27
  %8 = load i32, ptr %7, align 8
  %9 = lshr i32 %8, 4
  %10 = and i32 %9, 7
  %11 = icmp slt i32 %6, %10
  br i1 %11, label %12, label %26

12:                                               ; preds = %5
  %13 = load ptr, ptr %2, align 8, !tbaa !27
  %14 = load i32, ptr %3, align 4, !tbaa !3
  %15 = call ptr @Gli_ObjFanin(ptr noundef %13, i32 noundef %14)
  %16 = load i32, ptr %15, align 8
  %17 = lshr i32 %16, 1
  %18 = and i32 %17, 1
  %19 = load i32, ptr %3, align 4, !tbaa !3
  %20 = shl i32 %18, %19
  %21 = load i32, ptr %4, align 4, !tbaa !3
  %22 = or i32 %21, %20
  store i32 %22, ptr %4, align 4, !tbaa !3
  br label %23

23:                                               ; preds = %12
  %24 = load i32, ptr %3, align 4, !tbaa !3
  %25 = add nsw i32 %24, 1
  store i32 %25, ptr %3, align 4, !tbaa !3
  br label %5, !llvm.loop !43

26:                                               ; preds = %5
  %27 = load ptr, ptr %2, align 8, !tbaa !27
  %28 = getelementptr inbounds nuw %struct.Gli_Obj_t_, ptr %27, i32 0, i32 2
  %29 = load ptr, ptr %28, align 8, !tbaa !42
  %30 = load i32, ptr %4, align 4, !tbaa !3
  %31 = call i32 @Abc_InfoHasBit(ptr noundef %29, i32 noundef %30)
  call void @llvm.lifetime.end.p0(i64 4, ptr %4) #10
  call void @llvm.lifetime.end.p0(i64 4, ptr %3) #10
  ret i32 %31
}

; Function Attrs: inlinehint nounwind uwtable
define internal i32 @Gli_ObjIsTerm(ptr noundef %0) #3 {
  %2 = alloca ptr, align 8
  store ptr %0, ptr %2, align 8, !tbaa !27
  %3 = load ptr, ptr %2, align 8, !tbaa !27
  %4 = load i32, ptr %3, align 8
  %5 = and i32 %4, 1
  ret i32 %5
}

; Function Attrs: inlinehint nounwind uwtable
define internal ptr @Gli_ManObj(ptr noundef %0, i32 noundef %1) #3 {
  %3 = alloca ptr, align 8
  %4 = alloca i32, align 4
  store ptr %0, ptr %3, align 8, !tbaa !7
  store i32 %1, ptr %4, align 4, !tbaa !3
  %5 = load ptr, ptr %3, align 8, !tbaa !7
  %6 = getelementptr inbounds nuw %struct.Gli_Man_t_, ptr %5, i32 0, i32 10
  %7 = load ptr, ptr %6, align 8, !tbaa !20
  %8 = load i32, ptr %4, align 4, !tbaa !3
  %9 = sext i32 %8 to i64
  %10 = getelementptr inbounds i32, ptr %7, i64 %9
  ret ptr %10
}

; Function Attrs: nounwind uwtable
define void @Gli_ManSwitching(ptr noundef %0) #0 {
  %2 = alloca ptr, align 8
  %3 = alloca ptr, align 8
  %4 = alloca i32, align 4
  store ptr %0, ptr %2, align 8, !tbaa !7
  call void @llvm.lifetime.start.p0(i64 8, ptr %3) #10
  call void @llvm.lifetime.start.p0(i64 4, ptr %4) #10
  store i32 0, ptr %4, align 4, !tbaa !3
  br label %5

5:                                                ; preds = %48, %1
  %6 = load i32, ptr %4, align 4, !tbaa !3
  %7 = load ptr, ptr %2, align 8, !tbaa !7
  %8 = getelementptr inbounds nuw %struct.Gli_Man_t_, ptr %7, i32 0, i32 9
  %9 = load i32, ptr %8, align 8, !tbaa !19
  %10 = icmp slt i32 %6, %9
  br i1 %10, label %11, label %16

11:                                               ; preds = %5
  %12 = load ptr, ptr %2, align 8, !tbaa !7
  %13 = load i32, ptr %4, align 4, !tbaa !3
  %14 = call ptr @Gli_ManObj(ptr noundef %12, i32 noundef %13)
  store ptr %14, ptr %3, align 8, !tbaa !27
  %15 = icmp ne ptr %14, null
  br label %16

16:                                               ; preds = %11, %5
  %17 = phi i1 [ false, %5 ], [ %15, %11 ]
  br i1 %17, label %18, label %53

18:                                               ; preds = %16
  %19 = load ptr, ptr %3, align 8, !tbaa !27
  %20 = call i32 @Gli_ObjIsTerm(ptr noundef %19)
  %21 = icmp ne i32 %20, 0
  br i1 %21, label %22, label %23

22:                                               ; preds = %18
  br label %47

23:                                               ; preds = %18
  %24 = load ptr, ptr %3, align 8, !tbaa !27
  %25 = load i32, ptr %24, align 8
  %26 = lshr i32 %25, 1
  %27 = and i32 %26, 1
  %28 = load ptr, ptr %3, align 8, !tbaa !27
  %29 = call i32 @Gli_NodeComputeValue(ptr noundef %28)
  %30 = icmp eq i32 %27, %29
  br i1 %30, label %31, label %32

31:                                               ; preds = %23
  br label %48

32:                                               ; preds = %23
  %33 = load ptr, ptr %3, align 8, !tbaa !27
  %34 = load i32, ptr %33, align 8
  %35 = lshr i32 %34, 1
  %36 = and i32 %35, 1
  %37 = xor i32 %36, 1
  %38 = load i32, ptr %33, align 8
  %39 = and i32 %37, 1
  %40 = shl i32 %39, 1
  %41 = and i32 %38, -3
  %42 = or i32 %41, %40
  store i32 %42, ptr %33, align 8
  %43 = load ptr, ptr %3, align 8, !tbaa !27
  %44 = getelementptr inbounds nuw %struct.Gli_Obj_t_, ptr %43, i32 0, i32 4
  %45 = load i32, ptr %44, align 4, !tbaa !36
  %46 = add nsw i32 %45, 1
  store i32 %46, ptr %44, align 4, !tbaa !36
  br label %47

47:                                               ; preds = %32, %22
  br label %48

48:                                               ; preds = %47, %31
  %49 = load ptr, ptr %3, align 8, !tbaa !27
  %50 = call i32 @Gli_ObjSize(ptr noundef %49)
  %51 = load i32, ptr %4, align 4, !tbaa !3
  %52 = add nsw i32 %51, %50
  store i32 %52, ptr %4, align 4, !tbaa !3
  br label %5, !llvm.loop !49

53:                                               ; preds = %16
  call void @llvm.lifetime.end.p0(i64 4, ptr %4) #10
  call void @llvm.lifetime.end.p0(i64 8, ptr %3) #10
  ret void
}