; Function Attrs: nofree norecurse nosync nounwind memory(readwrite, inaccessiblemem: none) uwtable
define void @Gli_ManSwitching(ptr noundef readonly captures(none) %0) local_unnamed_addr #7 {
  %2 = getelementptr i8, ptr %0, i64 64
  %3 = getelementptr inbounds nuw i8, ptr %0, i64 56
  %4 = load i32, ptr %3, align 8, !tbaa !20
  %5 = icmp sgt i32 %4, 0
  br i1 %5, label %.lr.ph, label %.critedge

.lr.ph:                                           ; preds = %1, %44
  %6 = phi i32 [ %45, %44 ], [ %4, %1 ]
  %.014 = phi i32 [ %50, %44 ], [ 0, %1 ]
  %.val = load ptr, ptr %2, align 8, !tbaa !21
  %7 = zext nneg i32 %.014 to i64
  %8 = getelementptr inbounds nuw i32, ptr %.val, i64 %7
  %.not = icmp eq ptr %.val, null
  br i1 %.not, label %.critedge, label %9

9:                                                ; preds = %.lr.ph
  %.val13 = load i32, ptr %8, align 8
  %10 = and i32 %.val13, 1
  %.not11 = icmp eq i32 %10, 0
  br i1 %.not11, label %11, label %44

11:                                               ; preds = %9
  %12 = lshr exact i32 %.val13, 1
  %13 = lshr i32 %.val13, 4
  %14 = and i32 %13, 7
  %.not.i = icmp eq i32 %14, 0
  br i1 %.not.i, label %Gli_NodeComputeValue.exit, label %.lr.ph.i

.lr.ph.i:                                         ; preds = %11
  %15 = getelementptr inbounds nuw i8, ptr %8, i64 28
  %wide.trip.count.i = zext nneg i32 %14 to i64
  br label %16

16:                                               ; preds = %16, %.lr.ph.i
  %indvars.iv.i = phi i64 [ 0, %.lr.ph.i ], [ %indvars.iv.next.i, %16 ]
  %.010.i = phi i32 [ 0, %.lr.ph.i ], [ %27, %16 ]
  %17 = getelementptr inbounds nuw [0 x i32], ptr %15, i64 0, i64 %indvars.iv.i
  %18 = load i32, ptr %17, align 4, !tbaa !26
  %19 = sext i32 %18 to i64
  %20 = sub nsw i64 0, %19
  %21 = getelementptr inbounds i32, ptr %8, i64 %20
  %22 = load i32, ptr %21, align 8
  %23 = lshr i32 %22, 1
  %24 = and i32 %23, 1
  %25 = trunc nuw nsw i64 %indvars.iv.i to i32
  %26 = shl nuw nsw i32 %24, %25
  %27 = or i32 %26, %.010.i
  %indvars.iv.next.i = add nuw nsw i64 %indvars.iv.i, 1
  %exitcond.not.i = icmp eq i64 %indvars.iv.next.i, %wide.trip.count.i
  br i1 %exitcond.not.i, label %Gli_NodeComputeValue.exit, label %16, !llvm.loop !37

Gli_NodeComputeValue.exit:                        ; preds = %16, %11
  %.0.lcssa.i = phi i32 [ 0, %11 ], [ %27, %16 ]
  %28 = getelementptr inbounds nuw i8, ptr %8, i64 8
  %29 = load ptr, ptr %28, align 8, !tbaa !36
  %30 = ashr i32 %.0.lcssa.i, 5
  %31 = sext i32 %30 to i64
  %32 = getelementptr inbounds i32, ptr %29, i64 %31
  %33 = load i32, ptr %32, align 4, !tbaa !26
  %34 = and i32 %.0.lcssa.i, 31
  %35 = lshr i32 %33, %34
  %36 = xor i32 %35, %12
  %37 = and i32 %36, 1
  %38 = icmp eq i32 %37, 0
  br i1 %38, label %44, label %39

39:                                               ; preds = %Gli_NodeComputeValue.exit
  %40 = xor i32 %.val13, 2
  store i32 %40, ptr %8, align 8
  %41 = getelementptr inbounds nuw i8, ptr %8, i64 20
  %42 = load i32, ptr %41, align 4, !tbaa !31
  %43 = add nsw i32 %42, 1
  store i32 %43, ptr %41, align 4, !tbaa !31
  %.pre = load i32, ptr %3, align 8, !tbaa !20
  br label %44

44:                                               ; preds = %39, %9, %Gli_NodeComputeValue.exit
  %45 = phi i32 [ %.pre, %39 ], [ %6, %9 ], [ %6, %Gli_NodeComputeValue.exit ]
  %.val12 = phi i32 [ %40, %39 ], [ %.val13, %9 ], [ %.val13, %Gli_NodeComputeValue.exit ]
  %46 = lshr i32 %.val12, 4
  %47 = and i32 %46, 7
  %48 = lshr i32 %.val12, 7
  %49 = add nuw nsw i32 %.014, 8
  %narrow.i = add nuw nsw i32 %49, %48
  %50 = add nuw nsw i32 %narrow.i, %47
  %51 = icmp slt i32 %50, %45
  br i1 %51, label %.lr.ph, label %.critedge, !llvm.loop !41

.critedge:                                        ; preds = %.lr.ph, %44, %1
  ret void
}